Certificate:
    Data:
        Version: 3 (0x2)
        Serial Number: 1 (0x1)
        Signature Algorithm: sha256WithRSAEncryption
        Issuer: O=Test Org, CN=Test Org rauc CA Development
        Validity
            Not Before: Jan  1 00:00:00 1970 GMT
            Not After : Dec 31 23:59:59 9999 GMT
        Subject: O=Test Org, CN=Test Org rauc CA Development
        Subject Public Key Info:
            Public Key Algorithm: rsaEncryption
                Public-Key: (2048 bit)
                Modulus:
                    00:c4:fe:72:dd:85:53:34:7b:a9:33:57:4d:20:92:
                    62:3e:d7:5b:e0:a2:a8:79:38:6c:a9:ea:09:ff:4a:
                    15:c4:80:41:35:13:cf:5e:bd:3e:fd:b0:93:00:e8:
                    c4:99:96:89:ab:e1:4d:7c:ff:43:8e:aa:cd:31:3a:
                    b1:5e:e3:04:20:e6:4c:39:0b:3d:46:07:2e:bf:6a:
                    c6:9d:e4:4e:68:fc:82:cc:5b:b4:ad:50:47:87:d6:
                    71:92:86:95:80:5c:54:6a:f1:0a:0d:40:67:ac:ed:
                    37:0e:f1:26:9e:28:c0:5a:e9:c6:64:7b:d4:1a:d1:
                    28:f7:ae:dc:e8:ce:42:80:67:e6:78:a6:32:89:27:
                    c3:5c:34:6b:22:fe:4c:fe:77:7f:88:b7:7a:05:4b:
                    77:a6:04:85:cb:cb:10:6b:cc:e8:2e:a7:50:e3:17:
                    44:03:1a:30:0d:a1:97:41:13:7d:8a:72:03:bd:00:
                    ed:5b:5c:b6:c8:e3:84:68:91:b5:f5:ad:f7:e0:a6:
                    f6:ed:87:d5:c8:35:6d:e8:44:4b:7a:82:11:bf:fb:
                    47:ca:dc:f4:fe:55:87:7a:70:96:2d:68:f8:83:70:
                    17:ba:64:4d:aa:b1:95:6a:92:91:88:c9:6c:58:b5:
                    7f:df:f5:23:42:f1:fd:2b:40:16:b3:cc:59:3c:9e:
                    f3:07
                Exponent: 65537 (0x10001)
        X509v3 extensions:
            X509v3 Subject Key Identifier: 
                7E:04:ED:57:56:F4:6A:D2:33:7C:39:BE:E3:3D:45:DB:59:64:B7:B5
            X509v3 Authority Key Identifier: 
                keyid:7E:04:ED:57:56:F4:6A:D2:33:7C:39:BE:E3:3D:45:DB:59:64:B7:B5
                DirName:/O=Test Org/CN=Test Org rauc CA Development
                serial:01
            X509v3 Basic Constraints: 
                CA:TRUE
    Signature Algorithm: sha256WithRSAEncryption
    Signature Value:
        4c:cd:f4:c3:98:a0:f4:f3:c2:a0:51:a7:f2:35:64:30:3e:58:
        95:f1:91:e4:26:56:c7:07:0b:4f:0f:df:96:5c:f7:73:99:c1:
        08:ef:37:6a:29:25:52:3e:37:93:3c:29:69:3d:5e:88:dc:fa:
        14:57:6e:1d:09:b3:53:67:8c:19:9e:f2:f9:b5:74:2b:1a:84:
        e4:8f:64:48:87:d2:7b:7f:fc:d6:0c:0a:92:15:de:09:53:a1:
        fa:8c:0a:9d:f5:30:f2:99:74:02:6c:c2:5f:6e:20:79:95:52:
        fd:ad:54:8e:1f:1a:51:bf:95:fa:81:d3:59:28:1f:98:82:eb:
        b6:a0:ab:d1:9d:ab:66:18:7a:1f:49:ed:9c:a4:97:4f:75:24:
        9a:61:f4:5e:69:ec:35:7c:8a:85:40:aa:40:8b:9f:03:fd:11:
        ff:28:41:ca:bd:e0:73:00:8a:44:ae:59:6a:1e:3a:65:48:18:
        aa:73:fe:53:cf:44:2f:0b:93:e1:24:0d:17:45:66:b0:b0:3f:
        b4:d5:dd:df:fc:4c:e6:29:c9:55:23:a4:07:b0:5e:54:af:4e:
        95:60:b1:7d:7b:49:69:4e:a8:23:e2:b7:3d:c3:9a:a7:59:e5:
        f2:07:13:3d:ff:e8:60:7a:44:de:4a:8d:be:88:e2:f1:1b:07:
        47:8f:78:ef
-----BEGIN CERTIFICATE-----
MIIDhjCCAm6gAwIBAgIBATANBgkqhkiG9w0BAQsFADA6MREwDwYDVQQKDAhUZXN0
IE9yZzElMCMGA1UEAwwcVGVzdCBPcmcgcmF1YyBDQSBEZXZlbG9wbWVudDAgFw03
MDAxMDEwMDAwMDBaGA85OTk5MTIzMTIzNTk1OVowOjERMA8GA1UECgwIVGVzdCBP
cmcxJTAjBgNVBAMMHFRlc3QgT3JnIHJhdWMgQ0EgRGV2ZWxvcG1lbnQwggEiMA0G
CSqGSIb3DQEBAQUAA4IBDwAwggEKAoIBAQDE/nLdhVM0e6kzV00gkmI+11vgoqh5
OGyp6gn/ShXEgEE1E89evT79sJMA6MSZlomr4U18/0OOqs0xOrFe4wQg5kw5Cz1G
By6/asad5E5o/ILMW7StUEeH1nGShpWAXFRq8QoNQGes7TcO8SaeKMBa6cZke9Qa
0Sj3rtzozkKAZ+Z4pjKJJ8NcNGsi/kz+d3+It3oFS3emBIXLyxBrzOgup1DjF0QD
GjANoZdBE32KcgO9AO1bXLbI44RokbX1rffgpvbth9XINW3oREt6ghG/+0fK3PT+
VYd6cJYtaPiDcBe6ZE2qsZVqkpGIyWxYtX/f9SNC8f0rQBazzFk8nvMHAgMBAAGj
gZQwgZEwHQYDVR0OBBYEFH4E7VdW9GrSM3w5vuM9RdtZZLe1MGIGA1UdIwRbMFmA
FH4E7VdW9GrSM3w5vuM9RdtZZLe1oT6kPDA6MREwDwYDVQQKDAhUZXN0IE9yZzEl
MCMGA1UEAwwcVGVzdCBPcmcgcmF1YyBDQSBEZXZlbG9wbWVudIIBATAMBgNVHRME
BTADAQH/MA0GCSqGSIb3DQEBCwUAA4IBAQBMzfTDmKD088KgUafyNWQwPliV8ZHk
JlbHBwtPD9+WXPdzmcEI7zdqKSVSPjeTPClpPV6I3PoUV24dCbNTZ4wZnvL5tXQr
GoTkj2RIh9J7f/zWDAqSFd4JU6H6jAqd9TDymXQCbMJfbiB5lVL9rVSOHxpRv5X6
gdNZKB+Yguu2oKvRnatmGHofSe2cpJdPdSSaYfReaew1fIqFQKpAi58D/RH/KEHK
veBzAIpErllqHjplSBiqc/5Tz0QvC5PhJA0XRWawsD+01d3f/EzmKclVI6QHsF5U
r06VYLF9e0lpTqgj4rc9w5qnWeXyBxM9/+hgekTeSo2+iOLxGwdHj3jv
-----END CERTIFICATE-----
